target datalayout = "e-m:e-p270:32:32-p271:32:32-p272:64:64-i64:64-i128:128-f80:128-n8:16:32:64-S128"
target triple = "x86_64-pc-linux-gnu"

; Function Attrs: nounwind uwtable
define ptr @Gia_ManDupMuxesTest(ptr noundef %0) #0 {
  %2 = alloca ptr, align 8
  %3 = alloca ptr, align 8
  %4 = alloca ptr, align 8
  store ptr %0, ptr %2, align 8
  %5 = load ptr, ptr %2, align 8
  %6 = call ptr @Gia_ManDupMuxes(ptr noundef %5, i32 noundef 2)
  store ptr %6, ptr %3, align 8
  %7 = load ptr, ptr %3, align 8
  %8 = call ptr @Gia_ManDupNoMuxes(ptr noundef %7, i32 noundef 0)
  store ptr %8, ptr %4, align 8
  %9 = load ptr, ptr %2, align 8
  call void @Gia_ManPrintStats(ptr noundef %9, ptr noundef null)
  %10 = load ptr, ptr %3, align 8
  call void @Gia_ManPrintStats(ptr noundef %10, ptr noundef null)
  %11 = load ptr, ptr %4, align 8
  call void @Gia_ManPrintStats(ptr noundef %11, ptr noundef null)
  %12 = load ptr, ptr %3, align 8
  call void @Gia_ManStop(ptr noundef %12)
  %13 = load ptr, ptr %4, align 8
  ret ptr %13
}