; Function Attrs: nounwind uwtable
define ptr @Gia_ManDupMuxesTest(ptr noundef %0) local_unnamed_addr #0 {
  %2 = tail call ptr @Gia_ManDupMuxes(ptr noundef %0, i32 noundef 2)
  %3 = tail call ptr @Gia_ManDupNoMuxes(ptr noundef %2, i32 noundef 0)
  tail call void @Gia_ManPrintStats(ptr noundef %0, ptr noundef null) #26
  tail call void @Gia_ManPrintStats(ptr noundef %2, ptr noundef null) #26
  tail call void @Gia_ManPrintStats(ptr noundef %3, ptr noundef null) #26
  tail call void @Gia_ManStop(ptr noundef %2) #26
  ret ptr %3
}